TN:
SF:/home/cherrling/code/Lab1-2022112266/lab3/src/lab1.cpp
FNL:0,136,162
FNA:0,9,_ZN13DirectedGraph15findBridgeWordsERKNSt7__cxx1112basic_stringIcSt11char_traitsIcESaIcEEES7_
FNL:1,19,19
FNA:1,120,_ZN4EdgeC2ERKNSt7__cxx1112basic_stringIcSt11char_traitsIcESaIcEEEi
FNL:2,32,37
FNA:2,0,_Z7toLowerRKNSt7__cxx1112basic_stringIcSt11char_traitsIcESaIcEEE
FNL:3,35,35
FNA:3,0,_ZZ7toLowerRKNSt7__cxx1112basic_stringIcSt11char_traitsIcESaIcEEEENKUlhE_clEh
FNL:4,44,55
FNA:4,121,_ZN13DirectedGraph7addEdgeERKNSt7__cxx1112basic_stringIcSt11char_traitsIcESaIcEEES7_
FNF:5
FNH:3
DA:19,120
DA:32,0
DA:33,0
DA:34,0
DA:35,0
DA:36,0
DA:44,121
DA:46,258
DA:47,17
DA:49,1
DA:50,1
DA:54,120
DA:136,9
DA:137,9
DA:140,15
DA:141,15
DA:142,4
DA:146,16
DA:147,6
DA:150,6
DA:151,16
DA:152,7
DA:154,3
DA:155,3
DA:159,6
DA:161,5
DA:162,0
LF:27
LH:21
end_of_record
TN:
SF:/home/cherrling/code/Lab1-2022112266/lab3/test/test_bridge_words.cpp
FNL:0,109,123
FNA:0,1,_ZN39BridgeWordsTest_CyclicGraphBridges_Test8TestBodyEv
FNA:0,1,_ZN39BridgeWordsTest_CyclicGraphBridges_TestC2Ev
FNA:0,1,_ZN39BridgeWordsTest_CyclicGraphBridges_TestD0Ev
FNA:0,1,_ZN39BridgeWordsTest_CyclicGraphBridges_TestD2Ev
FNL:1,126,137
FNA:1,1,_ZN41BridgeWordsTest_SameWordNoDirectLoop_Test8TestBodyEv
FNA:1,1,_ZN41BridgeWordsTest_SameWordNoDirectLoop_TestC2Ev
FNA:1,1,_ZN41BridgeWordsTest_SameWordNoDirectLoop_TestD0Ev
FNA:1,1,_ZN41BridgeWordsTest_SameWordNoDirectLoop_TestD2Ev
FNL:2,140,156
FNA:2,1,_ZN37BridgeWordsTest_EdgeWeightImpact_Test8TestBodyEv
FNA:2,1,_ZN37BridgeWordsTest_EdgeWeightImpact_TestC2Ev
FNA:2,1,_ZN37BridgeWordsTest_EdgeWeightImpact_TestD0Ev
FNA:2,1,_ZN37BridgeWordsTest_EdgeWeightImpact_TestD2Ev
FNL:3,160,163
FNA:3,1,main
FNL:4,19,48
FNA:4,7,_ZN15BridgeWordsTest5SetUpEv
FNL:5,55,58
FNA:5,1,_ZN31BridgeWordsTest_EmptyGraph_Test8TestBodyEv
FNA:5,1,_ZN31BridgeWordsTest_EmptyGraph_TestC2Ev
FNA:5,1,_ZN31BridgeWordsTest_EmptyGraph_TestD0Ev
FNA:5,1,_ZN31BridgeWordsTest_EmptyGraph_TestD2Ev
FNL:6,61,75
FNA:6,1,_ZN46BridgeWordsTest_SimpleGraphExistingBridge_Test8TestBodyEv
FNA:6,1,_ZN46BridgeWordsTest_SimpleGraphExistingBridge_TestC2Ev
FNA:6,1,_ZN46BridgeWordsTest_SimpleGraphExistingBridge_TestD0Ev
FNA:6,1,_ZN46BridgeWordsTest_SimpleGraphExistingBridge_TestD2Ev
FNL:7,78,86
FNA:7,1,_ZN49BridgeWordsTest_SimpleGraphNonExistingBridge_Test8TestBodyEv
FNA:7,1,_ZN49BridgeWordsTest_SimpleGraphNonExistingBridge_TestC2Ev
FNA:7,1,_ZN49BridgeWordsTest_SimpleGraphNonExistingBridge_TestD0Ev
FNA:7,1,_ZN49BridgeWordsTest_SimpleGraphNonExistingBridge_TestD2Ev
FNL:8,89,106
FNA:8,1,_ZN35BridgeWordsTest_WordNotInGraph_Test8TestBodyEv
FNA:8,1,_ZN35BridgeWordsTest_WordNotInGraph_TestC2Ev
FNA:8,1,_ZN35BridgeWordsTest_WordNotInGraph_TestD0Ev
FNA:8,1,_ZN35BridgeWordsTest_WordNotInGraph_TestD2Ev
FNF:9
FNH:9
DA:19,7
DA:21,28
DA:22,28
DA:30,28
DA:31,28
DA:32,28
DA:33,28
DA:34,28
DA:35,28
DA:42,28
DA:43,28
DA:44,28
DA:45,28
DA:46,28
DA:47,28
DA:48,7
DA:55,4
DA:56,4
DA:57,1
DA:58,1
DA:61,4
DA:62,1
DA:65,4
DA:66,4
DA:67,4
DA:68,2
DA:69,1
DA:70,1
DA:71,1
DA:72,1
DA:73,1
DA:75,1
DA:78,4
DA:79,1
DA:82,4
DA:83,4
DA:84,3
DA:85,1
DA:86,1
DA:89,4
DA:90,1
DA:93,4
DA:94,4
DA:96,3
DA:97,1
DA:100,4
DA:101,1
DA:104,4
DA:105,1
DA:106,1
DA:109,4
DA:110,1
DA:111,4
DA:112,4
DA:113,4
DA:114,4
DA:115,4
DA:116,4
DA:118,3
DA:119,1
DA:120,1
DA:121,1
DA:123,1
DA:126,4
DA:127,1
DA:128,4
DA:129,4
DA:130,4
DA:131,4
DA:132,4
DA:133,4
DA:135,3
DA:136,1
DA:137,1
DA:140,4
DA:142,1
DA:143,4
DA:144,4
DA:147,4
DA:150,4
DA:151,3
DA:152,1
DA:153,1
DA:154,1
DA:156,1
DA:160,1
DA:161,1
DA:162,1
LF:88
LH:88
end_of_record
TN:
SF:/usr/include/c++/15.1.1/bits/alloc_traits.h
FNF:0
FNH:0
DA:614,262
DA:649,227
DA:674,451
DA:680,243
DA:700,120
DA:712,2513
DA:726,233
DA:1045,113
DA:1046,113
LF:9
LH:9
end_of_record
TN:
SF:/usr/include/c++/15.1.1/bits/allocator.h
FNF:0
FNH:0
DA:168,407
DA:173,883
DA:189,493
LF:3
LH:3
end_of_record
TN:
SF:/usr/include/c++/15.1.1/bits/basic_string.h
FNL:0,1047,1048
FNA:0,0,_ZNSt7__cxx1112basic_stringIcSt11char_traitsIcESaIcEE5beginEv
FNL:1,1065,1066
FNA:1,0,_ZNSt7__cxx1112basic_stringIcSt11char_traitsIcESaIcEE3endEv
FNL:2,1163,1169
FNA:2,2232,_ZNKSt7__cxx1112basic_stringIcSt11char_traitsIcESaIcEE4sizeEv
FNL:3,1175,1176
FNA:3,512,_ZNKSt7__cxx1112basic_stringIcSt11char_traitsIcESaIcEE6lengthEv
FNL:4,1181,1187
FNA:4,2267,_ZNKSt7__cxx1112basic_stringIcSt11char_traitsIcESaIcEE8max_sizeEv
FNL:5,140,153
FNA:5,35,_ZNSt7__cxx1112basic_stringIcSt11char_traitsIcESaIcEE11_S_allocateERS3_m
FNL:6,204,205
FNA:6,274,_ZNSt7__cxx1112basic_stringIcSt11char_traitsIcESaIcEE12_Alloc_hiderC2EPcRKS3_
FNL:7,208,209
FNA:7,376,_ZNSt7__cxx1112basic_stringIcSt11char_traitsIcESaIcEE12_Alloc_hiderC2EPcOS3_
FNL:8,228,229
FNA:8,157,_ZNSt7__cxx1112basic_stringIcSt11char_traitsIcESaIcEE7_M_dataEPc
FNL:9,233,234
FNA:9,793,_ZNSt7__cxx1112basic_stringIcSt11char_traitsIcESaIcEE9_M_lengthEm
FNL:10,238,239
FNA:10,3650,_ZNKSt7__cxx1112basic_stringIcSt11char_traitsIcESaIcEE7_M_dataEv
FNL:11,243,250
FNA:11,793,_ZNSt7__cxx1112basic_stringIcSt11char_traitsIcESaIcEE13_M_local_dataEv
FNL:12,254,261
FNA:12,793,_ZNKSt7__cxx1112basic_stringIcSt11char_traitsIcESaIcEE13_M_local_dataEv
FNL:13,265,266
FNA:13,14,_ZNSt7__cxx1112basic_stringIcSt11char_traitsIcESaIcEE11_M_capacityEm
FNL:14,270,274
FNA:14,417,_ZNSt7__cxx1112basic_stringIcSt11char_traitsIcESaIcEE13_M_set_lengthEm
FNL:15,278,287
FNA:15,793,_ZNKSt7__cxx1112basic_stringIcSt11char_traitsIcESaIcEE11_M_is_localEv
FNL:16,2873,2874
FNA:16,0,_ZNKSt7__cxx1112basic_stringIcSt11char_traitsIcESaIcEE5c_strEv
FNL:17,2886,2887
FNA:17,872,_ZNKSt7__cxx1112basic_stringIcSt11char_traitsIcESaIcEE4dataEv
FNL:18,296,300
FNA:18,650,_ZNSt7__cxx1112basic_stringIcSt11char_traitsIcESaIcEE10_M_disposeEv
FNL:19,304,305
FNA:19,0,_ZNSt7__cxx1112basic_stringIcSt11char_traitsIcESaIcEE10_M_destroyEm
FNL:20,3461,3471
FNA:20,821,_ZNKSt7__cxx1112basic_stringIcSt11char_traitsIcESaIcEE7compareERKS4_
FNL:21,359,360
FNA:21,178,_ZNSt7__cxx1112basic_stringIcSt11char_traitsIcESaIcEE16_M_get_allocatorEv
FNL:22,364,365
FNA:22,2500,_ZNKSt7__cxx1112basic_stringIcSt11char_traitsIcESaIcEE16_M_get_allocatorEv
FNL:23,4045,4051
FNA:23,24,_ZSteqIcSt11char_traitsIcESaIcEEbRKNSt7__cxx1112basic_stringIT_T0_T1_EESA_
FNL:24,4062,4067
FNA:24,3,_ZSteqIcSt11char_traitsIcESaIcEEbRKNSt7__cxx1112basic_stringIT_T0_T1_EEPKS5_
FNL:25,4164,4167
FNA:25,821,_ZStltIcSt11char_traitsIcESaIcEEbRKNSt7__cxx1112basic_stringIT_T0_T1_EESA_
FNL:26,448,454
FNA:26,507,_ZNSt7__cxx1112basic_stringIcSt11char_traitsIcESaIcEE7_S_copyEPcPKcm
FNL:27,483,506
FNA:27,274,_ZNSt7__cxx1112basic_stringIcSt11char_traitsIcESaIcEE13_S_copy_charsIPKcEEvPcT_S9_
FNL:28,551,561
FNA:28,330,_ZNSt7__cxx1112basic_stringIcSt11char_traitsIcESaIcEE10_S_compareEmm
FNL:29,613,618
FNA:29,233,_ZNSt7__cxx1112basic_stringIcSt11char_traitsIcESaIcEEC2ERKS4_
FNL:30,706,715
FNA:30,274,_ZNSt7__cxx1112basic_stringIcSt11char_traitsIcESaIcEEC2IS3_EEPKcRKS3_
FNL:31,742,763
FNA:31,143,_ZNSt7__cxx1112basic_stringIcSt11char_traitsIcESaIcEEC2EOS4_
FNL:32,895,896
FNA:32,650,_ZNSt7__cxx1112basic_stringIcSt11char_traitsIcESaIcEED2Ev
FNF:33
FNH:29
DA:140,35
DA:142,35
DA:152,35
DA:204,274
DA:205,274
DA:208,376
DA:209,376
DA:228,157
DA:229,157
DA:233,793
DA:234,793
DA:238,3650
DA:239,3650
DA:243,793
DA:246,793
DA:254,793
DA:257,793
DA:265,14
DA:266,14
DA:270,417
DA:272,417
DA:273,417
DA:274,417
DA:278,793
DA:280,793
DA:282,786
DA:283,0
DA:284,786
DA:286,7
DA:296,650
DA:298,650
DA:299,0
DA:300,650
DA:304,0
DA:305,0
DA:359,178
DA:360,178
DA:364,2500
DA:365,2500
DA:378,636
DA:388,143
DA:448,507
DA:450,507
DA:451,196
DA:453,311
DA:454,507
DA:483,274
DA:489,548
DA:506,274
DA:551,330
DA:553,330
DA:555,330
DA:556,0
DA:557,330
DA:558,0
DA:560,330
DA:613,233
DA:614,233
DA:615,233
DA:617,233
DA:618,233
DA:706,274
DA:707,274
DA:710,274
DA:711,0
DA:713,274
DA:714,274
DA:715,274
DA:742,143
DA:743,286
DA:745,143
DA:748,136
DA:749,136
DA:753,7
DA:754,7
DA:760,143
DA:761,143
DA:762,143
DA:763,143
DA:895,650
DA:896,650
DA:1047,0
DA:1048,0
DA:1065,0
DA:1066,0
DA:1163,2232
DA:1165,2232
DA:1166,2232
DA:1167,0
DA:1168,2232
DA:1175,512
DA:1176,512
DA:1181,2267
DA:1183,2267
DA:1185,2267
DA:1186,2267
DA:2873,0
DA:2874,0
DA:2886,872
DA:2887,872
DA:3461,821
DA:3463,821
DA:3464,821
DA:3465,821
DA:3467,821
DA:3468,821
DA:3469,330
DA:3470,821
DA:4045,24
DA:4049,24
DA:4050,24
DA:4062,3
DA:4065,3
DA:4066,3
DA:4164,821
DA:4167,821
LF:116
LH:102
end_of_record
TN:
SF:/usr/include/c++/15.1.1/bits/basic_string.tcc
FNL:0,143,165
FNA:0,35,_ZNSt7__cxx1112basic_stringIcSt11char_traitsIcESaIcEE9_M_createERmm
FNL:1,227,258
FNA:1,274,_ZNSt7__cxx1112basic_stringIcSt11char_traitsIcESaIcEE12_M_constructIPKcEEvT_S8_St20forward_iterator_tag
FNL:2,245,245
FNA:2,274,_ZZNSt7__cxx1112basic_stringIcSt11char_traitsIcESaIcEE12_M_constructIPKcEEvT_S8_St20forward_iterator_tagEN6_GuardC2EPS4_
FNL:3,248,248
FNA:3,274,_ZZNSt7__cxx1112basic_stringIcSt11char_traitsIcESaIcEE12_M_constructIPKcEEvT_S8_St20forward_iterator_tagEN6_GuardD2Ev
FNL:4,286,303
FNA:4,233,_ZNSt7__cxx1112basic_stringIcSt11char_traitsIcESaIcEE12_M_constructILb1EEEvPKcm
FNF:5
FNH:5
DA:143,35
DA:148,35
DA:149,0
DA:154,35
DA:156,0
DA:158,0
DA:159,0
DA:164,35
DA:227,274
DA:231,274
DA:233,274
DA:235,7
DA:236,7
DA:245,274
DA:248,274
DA:251,274
DA:253,274
DA:255,274
DA:257,274
DA:258,274
DA:286,233
DA:289,233
DA:291,0
DA:292,0
DA:298,233
DA:300,233
DA:303,233
LF:27
LH:21
end_of_record
TN:
SF:/usr/include/c++/15.1.1/bits/char_traits.h
FNL:0,138,139
FNA:0,0,_ZN9__gnu_cxx11char_traitsIcE2eqERKcS3_
FNL:1,201,208
FNA:1,0,_ZN9__gnu_cxx11char_traitsIcE6lengthEPKc
FNL:2,345,353
FNA:2,613,_ZNSt11char_traitsIcE6assignERcRKc
FNL:3,360,365
FNA:3,0,_ZNSt11char_traitsIcE2ltERKcS2_
FNL:4,368,384
FNA:4,848,_ZNSt11char_traitsIcE7compareEPKcS2_m
FNL:5,387,394
FNA:5,277,_ZNSt11char_traitsIcE6lengthEPKc
FNL:6,421,430
FNA:6,447,_ZNSt11char_traitsIcE4copyEPcPKcm
FNF:7
FNH:4
DA:138,0
DA:139,0
DA:201,0
DA:204,0
DA:205,0
DA:206,0
DA:207,0
DA:345,613
DA:352,613
DA:353,613
DA:360,0
DA:363,0
DA:364,0
DA:368,848
DA:370,848
DA:371,0
DA:373,848
DA:375,0
DA:376,0
DA:377,0
DA:378,0
DA:379,0
DA:380,0
DA:383,848
DA:387,277
DA:390,277
DA:391,0
DA:393,277
DA:421,447
DA:423,447
DA:424,0
DA:429,447
LF:32
LH:13
end_of_record
TN:
SF:/usr/include/c++/15.1.1/bits/move.h
FNF:0
FNH:0
DA:53,1861
DA:73,2705
DA:139,662
DA:177,1690
LF:4
LH:4
end_of_record
TN:
SF:/usr/include/c++/15.1.1/bits/new_allocator.h
FNL:0,104,104
FNA:0,104,_ZNSt15__new_allocatorI4EdgeED2Ev
FNA:0,9,_ZNSt15__new_allocatorINSt7__cxx1112basic_stringIcSt11char_traitsIcESaIcEEEED2Ev
FNA:0,34,_ZNSt15__new_allocatorISt13_Rb_tree_nodeISt4pairIKNSt7__cxx1112basic_stringIcSt11char_traitsIcESaIcEEESt6vectorI4EdgeSaISA_EEEEED2Ev
FNA:0,1157,_ZNSt15__new_allocatorIcED2Ev
FNL:1,126,152
FNA:1,120,_ZNSt15__new_allocatorI4EdgeE8allocateEmPKv
FNA:1,3,_ZNSt15__new_allocatorINSt7__cxx1112basic_stringIcSt11char_traitsIcESaIcEEEE8allocateEmPKv
FNA:1,104,_ZNSt15__new_allocatorISt13_Rb_tree_nodeISt4pairIKNSt7__cxx1112basic_stringIcSt11char_traitsIcESaIcEEESt6vectorI4EdgeSaISA_EEEEE8allocateEmPKv
FNA:1,35,_ZNSt15__new_allocatorIcE8allocateEmPKv
FNL:2,156,173
FNA:2,120,_ZNSt15__new_allocatorI4EdgeE10deallocateEPS0_m
FNA:2,3,_ZNSt15__new_allocatorINSt7__cxx1112basic_stringIcSt11char_traitsIcESaIcEEEE10deallocateEPS5_m
FNA:2,104,_ZNSt15__new_allocatorISt13_Rb_tree_nodeISt4pairIKNSt7__cxx1112basic_stringIcSt11char_traitsIcESaIcEEESt6vectorI4EdgeSaISA_EEEEE10deallocateEPSE_m
FNA:2,0,_ZNSt15__new_allocatorIcE10deallocateEPcm
FNF:3
FNH:3
DA:88,407
DA:92,883
DA:104,1304
DA:126,262
DA:134,262
DA:138,0
DA:139,0
DA:140,0
DA:151,262
DA:156,227
DA:172,227
DA:183,2513
DA:191,694
DA:198,120
DA:233,2775
LF:15
LH:12
end_of_record
TN:
SF:/usr/include/c++/15.1.1/bits/ptr_traits.h
FNL:0,134,135
FNA:0,793,_ZNSt19__ptr_traits_ptr_toIPKcS0_Lb0EE10pointer_toERS0_
FNA:0,793,_ZNSt19__ptr_traits_ptr_toIPccLb0EE10pointer_toERc
FNF:1
FNH:1
DA:134,1586
DA:135,1586
DA:211,123
LF:3
LH:3
end_of_record
TN:
SF:/usr/include/c++/15.1.1/bits/stl_algo.h
FNL:0,4254,4267
FNA:0,0,_ZSt9transformIN9__gnu_cxx17__normal_iteratorIPcNSt7__cxx1112basic_stringIcSt11char_traitsIcESaIcEEEEES9_Z7toLowerRKS8_EUlhE_ET0_T_SE_SD_T1_
FNF:1
FNH:0
DA:4254,0
DA:4264,0
DA:4265,0
DA:4266,0
LF:4
LH:0
end_of_record
TN:
SF:/usr/include/c++/15.1.1/bits/stl_algobase.h
FNL:0,234,242
FNA:0,3334,_ZSt3minImERKT_S2_S2_
FNL:1,258,266
FNA:1,123,_ZSt3maxImERKT_S2_S2_
FNF:2
FNH:2
DA:234,3334
DA:239,3334
DA:240,12
DA:241,3322
DA:258,123
DA:263,123
DA:264,107
DA:265,16
LF:8
LH:8
end_of_record
TN:
SF:/usr/include/c++/15.1.1/bits/stl_construct.h
FNL:0,161,168
FNA:0,120,_ZSt8_DestroyI4EdgeEvPT_
FNA:0,3,_ZSt8_DestroyINSt7__cxx1112basic_stringIcSt11char_traitsIcESaIcEEEEvPT_
FNL:1,202,222
FNA:1,104,_ZSt8_DestroyIP4EdgeEvT_S2_
FNA:1,9,_ZSt8_DestroyIPNSt7__cxx1112basic_stringIcSt11char_traitsIcESaIcEEEEvT_S7_
FNF:2
FNH:2
DA:161,123
DA:166,123
DA:168,123
DA:202,113
DA:211,236
DA:212,123
DA:222,113
LF:7
LH:7
end_of_record
TN:
SF:/usr/include/c++/15.1.1/bits/stl_function.h
FNL:0,1179,1180
FNA:0,810,_ZNKSt10_Select1stISt4pairIKNSt7__cxx1112basic_stringIcSt11char_traitsIcESaIcEEESt6vectorI4EdgeSaIS9_EEEEclERKSC_
FNL:1,404,405
FNA:1,821,_ZNKSt4lessINSt7__cxx1112basic_stringIcSt11char_traitsIcESaIcEEEEclERKS5_S8_
FNF:2
FNH:2
DA:404,821
DA:405,821
DA:1179,810
DA:1180,810
LF:4
LH:4
end_of_record
TN:
SF:/usr/include/c++/15.1.1/bits/stl_iterator.h
FNF:0
FNH:0
DA:1058,1008
DA:1059,888
DA:1090,150
DA:1103,26
DA:1104,26
DA:1160,120
DA:1166,410
DA:1231,258
DA:1247,316
DA:1340,246
DA:3011,643
LF:11
LH:11
end_of_record
TN:
SF:/usr/include/c++/15.1.1/bits/stl_iterator_base_funcs.h
FNF:0
FNH:0
DA:108,274
DA:153,548
DA:154,548
LF:3
LH:3
end_of_record
TN:
SF:/usr/include/c++/15.1.1/bits/stl_iterator_base_types.h
FNF:0
FNH:0
DA:242,274
LF:1
LH:1
end_of_record
TN:
SF:/usr/include/c++/15.1.1/bits/stl_map.h
FNL:0,1232,1233
FNA:0,174,_ZNKSt3mapINSt7__cxx1112basic_stringIcSt11char_traitsIcESaIcEEESt6vectorI4EdgeSaIS7_EESt4lessIS5_ESaISt4pairIKS5_S9_EEE8key_compEv
FNL:1,1259,1260
FNA:1,21,_ZNSt3mapINSt7__cxx1112basic_stringIcSt11char_traitsIcESaIcEEESt6vectorI4EdgeSaIS7_EESt4lessIS5_ESaISt4pairIKS5_S9_EEE4findERSD_
FNL:2,1348,1349
FNA:2,252,_ZNSt3mapINSt7__cxx1112basic_stringIcSt11char_traitsIcESaIcEEESt6vectorI4EdgeSaIS7_EESt4lessIS5_ESaISt4pairIKS5_S9_EEE11lower_boundERSD_
FNL:3,200,200
FNA:3,34,_ZNSt3mapINSt7__cxx1112basic_stringIcSt11char_traitsIcESaIcEEESt6vectorI4EdgeSaIS7_EESt4lessIS5_ESaISt4pairIKS5_S9_EEEC2Ev
FNL:4,337,337
FNA:4,34,_ZNSt3mapINSt7__cxx1112basic_stringIcSt11char_traitsIcESaIcEEESt6vectorI4EdgeSaIS7_EESt4lessIS5_ESaISt4pairIKS5_S9_EEED2Ev
FNL:5,409,410
FNA:5,273,_ZNSt3mapINSt7__cxx1112basic_stringIcSt11char_traitsIcESaIcEEESt6vectorI4EdgeSaIS7_EESt4lessIS5_ESaISt4pairIKS5_S9_EEE3endEv
FNL:6,527,543
FNA:6,252,_ZNSt3mapINSt7__cxx1112basic_stringIcSt11char_traitsIcESaIcEEESt6vectorI4EdgeSaIS7_EESt4lessIS5_ESaISt4pairIKS5_S9_EEEixERSD_
FNF:7
FNH:7
DA:200,34
DA:337,34
DA:409,273
DA:410,273
DA:527,252
DA:532,252
DA:534,252
DA:536,104
DA:537,104
DA:538,104
DA:542,504
DA:1232,174
DA:1233,174
DA:1259,21
DA:1260,21
DA:1348,252
DA:1349,252
LF:17
LH:17
end_of_record
TN:
SF:/usr/include/c++/15.1.1/bits/stl_pair.h
FNL:0,901,903
FNA:0,0,_ZNSt4pairIPSt18_Rb_tree_node_baseS1_EC2IRS1_S1_Lb1EEEOT_OT0_
FNA:0,45,_ZNSt4pairIPSt18_Rb_tree_node_baseS1_EC2IRS1_S4_Lb1EEEOT_OT0_
FNA:0,59,_ZNSt4pairIPSt18_Rb_tree_node_baseS1_EC2IS1_RS1_Lb1EEEOT_OT0_
FNF:1
FNH:1
DA:901,104
DA:902,104
DA:903,104
LF:3
LH:3
end_of_record
TN:
SF:/usr/include/c++/15.1.1/bits/stl_tree.h
FNL:0,1154,1155
FNA:0,416,_ZNSt8_Rb_treeINSt7__cxx1112basic_stringIcSt11char_traitsIcESaIcEEESt4pairIKS5_St6vectorI4EdgeSaIS9_EEESt10_Select1stISC_ESt4lessIS5_ESaISC_EE21_M_get_Node_allocatorEv
FNL:1,1167,1185
FNA:1,104,_ZNSt8_Rb_treeINSt7__cxx1112basic_stringIcSt11char_traitsIcESaIcEEESt4pairIKS5_St6vectorI4EdgeSaIS9_EEESt10_Select1stISC_ESt4lessIS5_ESaISC_EE11_M_get_nodeEv
FNL:2,1188,1207
FNA:2,104,_ZNSt8_Rb_treeINSt7__cxx1112basic_stringIcSt11char_traitsIcESaIcEEESt4pairIKS5_St6vectorI4EdgeSaIS9_EEESt10_Select1stISC_ESt4lessIS5_ESaISC_EE11_M_put_nodeEPSt13_Rb_tree_nodeISC_E
FNL:3,1232,1247
FNA:3,104,_ZNSt8_Rb_treeINSt7__cxx1112basic_stringIcSt11char_traitsIcESaIcEEESt4pairIKS5_St6vectorI4EdgeSaIS9_EEESt10_Select1stISC_ESt4lessIS5_ESaISC_EE17_M_construct_nodeIJRKSt21piecewise_construct_tSt5tupleIJRS7_EESN_IJEEEEEvPSt13_Rb_tree_nodeISC_EDpOT_
FNL:4,1251,1256
FNA:4,104,_ZNSt8_Rb_treeINSt7__cxx1112basic_stringIcSt11char_traitsIcESaIcEEESt4pairIKS5_St6vectorI4EdgeSaIS9_EEESt10_Select1stISC_ESt4lessIS5_ESaISC_EE14_M_create_nodeIJRKSt21piecewise_construct_tSt5tupleIJRS7_EESN_IJEEEEEPSt13_Rb_tree_nodeISC_EDpOT_
FNL:5,1260,1268
FNA:5,104,_ZNSt8_Rb_treeINSt7__cxx1112basic_stringIcSt11char_traitsIcESaIcEEESt4pairIKS5_St6vectorI4EdgeSaIS9_EEESt10_Select1stISC_ESt4lessIS5_ESaISC_EE15_M_destroy_nodeEPSt13_Rb_tree_nodeISC_E
FNL:6,1271,1275
FNA:6,104,_ZNSt8_Rb_treeINSt7__cxx1112basic_stringIcSt11char_traitsIcESaIcEEESt4pairIKS5_St6vectorI4EdgeSaIS9_EEESt10_Select1stISC_ESt4lessIS5_ESaISC_EE12_M_drop_nodeEPSt13_Rb_tree_nodeISC_E
FNL:7,1310,1315
FNA:7,34,_ZNSt8_Rb_treeINSt7__cxx1112basic_stringIcSt11char_traitsIcESaIcEEESt4pairIKS5_St6vectorI4EdgeSaIS9_EEESt10_Select1stISC_ESt4lessIS5_ESaISC_EE13_Rb_tree_implISG_Lb1EEC2Ev
FNL:8,134,135
FNA:8,892,_ZNKSt18_Rb_tree_node_base11_M_base_ptrEv
FNL:9,1361,1362
FNA:9,46,_ZNSt8_Rb_treeINSt7__cxx1112basic_stringIcSt11char_traitsIcESaIcEEESt4pairIKS5_St6vectorI4EdgeSaIS9_EEESt10_Select1stISC_ESt4lessIS5_ESaISC_EE11_M_leftmostEv
FNL:10,1369,1370
FNA:10,102,_ZNSt8_Rb_treeINSt7__cxx1112basic_stringIcSt11char_traitsIcESaIcEEESt4pairIKS5_St6vectorI4EdgeSaIS9_EEESt10_Select1stISC_ESt4lessIS5_ESaISC_EE12_M_rightmostEv
FNL:11,1377,1378
FNA:11,300,_ZNKSt8_Rb_treeINSt7__cxx1112basic_stringIcSt11char_traitsIcESaIcEEESt4pairIKS5_St6vectorI4EdgeSaIS9_EEESt10_Select1stISC_ESt4lessIS5_ESaISC_EE8_M_beginEv
FNL:12,1381,1387
FNA:12,34,_ZNKSt8_Rb_treeINSt7__cxx1112basic_stringIcSt11char_traitsIcESaIcEEESt4pairIKS5_St6vectorI4EdgeSaIS9_EEESt10_Select1stISC_ESt4lessIS5_ESaISC_EE13_M_begin_nodeEv
FNL:13,1390,1391
FNA:13,788,_ZNKSt8_Rb_treeINSt7__cxx1112basic_stringIcSt11char_traitsIcESaIcEEESt4pairIKS5_St6vectorI4EdgeSaIS9_EEESt10_Select1stISC_ESt4lessIS5_ESaISC_EE6_M_endEv
FNL:14,1394,1413
FNA:14,810,_ZNSt8_Rb_treeINSt7__cxx1112basic_stringIcSt11char_traitsIcESaIcEEESt4pairIKS5_St6vectorI4EdgeSaIS9_EEESt10_Select1stISC_ESt4lessIS5_ESaISC_EE6_S_keyERKSt13_Rb_tree_nodeISC_E
FNL:15,1416,1417
FNA:15,647,_ZNSt8_Rb_treeINSt7__cxx1112basic_stringIcSt11char_traitsIcESaIcEEESt4pairIKS5_St6vectorI4EdgeSaIS9_EEESt10_Select1stISC_ESt4lessIS5_ESaISC_EE6_S_keyEPSt18_Rb_tree_node_base
FNL:16,1420,1421
FNA:16,163,_ZNSt8_Rb_treeINSt7__cxx1112basic_stringIcSt11char_traitsIcESaIcEEESt4pairIKS5_St6vectorI4EdgeSaIS9_EEESt10_Select1stISC_ESt4lessIS5_ESaISC_EE6_S_keyEPSt13_Rb_tree_nodeISC_E
FNL:17,1424,1425
FNA:17,269,_ZNSt8_Rb_treeINSt7__cxx1112basic_stringIcSt11char_traitsIcESaIcEEESt4pairIKS5_St6vectorI4EdgeSaIS9_EEESt10_Select1stISC_ESt4lessIS5_ESaISC_EE7_S_leftEPSt18_Rb_tree_node_base
FNL:18,1428,1433
FNA:18,104,_ZNSt8_Rb_treeINSt7__cxx1112basic_stringIcSt11char_traitsIcESaIcEEESt4pairIKS5_St6vectorI4EdgeSaIS9_EEESt10_Select1stISC_ESt4lessIS5_ESaISC_EE7_S_leftEPSt13_Rb_tree_nodeISC_E
FNL:19,1436,1437
FNA:19,222,_ZNSt8_Rb_treeINSt7__cxx1112basic_stringIcSt11char_traitsIcESaIcEEESt4pairIKS5_St6vectorI4EdgeSaIS9_EEESt10_Select1stISC_ESt4lessIS5_ESaISC_EE8_S_rightEPSt18_Rb_tree_node_base
FNL:20,144,148
FNA:20,34,_ZNSt20_Rb_tree_key_compareISt4lessINSt7__cxx1112basic_stringIcSt11char_traitsIcESaIcEEEEEC2Ev
FNL:21,1440,1445
FNA:21,104,_ZNSt8_Rb_treeINSt7__cxx1112basic_stringIcSt11char_traitsIcESaIcEEESt4pairIKS5_St6vectorI4EdgeSaIS9_EEESt10_Select1stISC_ESt4lessIS5_ESaISC_EE8_S_rightEPSt13_Rb_tree_nodeISC_E
FNL:22,1553,1553
FNA:22,34,_ZNSt8_Rb_treeINSt7__cxx1112basic_stringIcSt11char_traitsIcESaIcEEESt4pairIKS5_St6vectorI4EdgeSaIS9_EEESt10_Select1stISC_ESt4lessIS5_ESaISC_EEC2Ev
FNL:23,1608,1609
FNA:23,34,_ZNSt8_Rb_treeINSt7__cxx1112basic_stringIcSt11char_traitsIcESaIcEEESt4pairIKS5_St6vectorI4EdgeSaIS9_EEESt10_Select1stISC_ESt4lessIS5_ESaISC_EED2Ev
FNL:24,1616,1617
FNA:24,174,_ZNKSt8_Rb_treeINSt7__cxx1112basic_stringIcSt11char_traitsIcESaIcEEESt4pairIKS5_St6vectorI4EdgeSaIS9_EEESt10_Select1stISC_ESt4lessIS5_ESaISC_EE8key_compEv
FNL:25,1620,1621
FNA:25,27,_ZNSt8_Rb_treeINSt7__cxx1112basic_stringIcSt11char_traitsIcESaIcEEESt4pairIKS5_St6vectorI4EdgeSaIS9_EEESt10_Select1stISC_ESt4lessIS5_ESaISC_EE5beginEv
FNL:26,1628,1629
FNA:26,298,_ZNSt8_Rb_treeINSt7__cxx1112basic_stringIcSt11char_traitsIcESaIcEEESt4pairIKS5_St6vectorI4EdgeSaIS9_EEESt10_Select1stISC_ESt4lessIS5_ESaISC_EE3endEv
FNL:27,1656,1657
FNA:27,78,_ZNKSt8_Rb_treeINSt7__cxx1112basic_stringIcSt11char_traitsIcESaIcEEESt4pairIKS5_St6vectorI4EdgeSaIS9_EEESt10_Select1stISC_ESt4lessIS5_ESaISC_EE4sizeEv
FNL:28,171,175
FNA:28,34,_ZNSt15_Rb_tree_headerC2Ev
FNL:29,1893,1894
FNA:29,252,_ZNSt8_Rb_treeINSt7__cxx1112basic_stringIcSt11char_traitsIcESaIcEEESt4pairIKS5_St6vectorI4EdgeSaIS9_EEESt10_Select1stISC_ESt4lessIS5_ESaISC_EE11lower_boundERS7_
FNL:30,204,210
FNA:30,34,_ZNSt15_Rb_tree_header8_M_resetEv
FNL:31,2283,2286
FNA:31,104,_ZNSt8_Rb_treeINSt7__cxx1112basic_stringIcSt11char_traitsIcESaIcEEESt4pairIKS5_St6vectorI4EdgeSaIS9_EEESt10_Select1stISC_ESt4lessIS5_ESaISC_EE10_Auto_nodeC2IJRKSt21piecewise_construct_tSt5tupleIJRS7_EESO_IJEEEEERSI_DpOT_
FNL:32,2288,2292
FNA:32,104,_ZNSt8_Rb_treeINSt7__cxx1112basic_stringIcSt11char_traitsIcESaIcEEESt4pairIKS5_St6vectorI4EdgeSaIS9_EEESt10_Select1stISC_ESt4lessIS5_ESaISC_EE10_Auto_nodeD2Ev
FNL:33,2299,2300
FNA:33,104,_ZNKSt8_Rb_treeINSt7__cxx1112basic_stringIcSt11char_traitsIcESaIcEEESt4pairIKS5_St6vectorI4EdgeSaIS9_EEESt10_Select1stISC_ESt4lessIS5_ESaISC_EE10_Auto_node6_M_keyEv
FNL:34,230,231
FNA:34,634,_ZNSt13_Rb_tree_nodeISt4pairIKNSt7__cxx1112basic_stringIcSt11char_traitsIcESaIcEEESt6vectorI4EdgeSaIS9_EEEE9_M_valptrEv
FNL:35,2303,2308
FNA:35,104,_ZNSt8_Rb_treeINSt7__cxx1112basic_stringIcSt11char_traitsIcESaIcEEESt4pairIKS5_St6vectorI4EdgeSaIS9_EEESt10_Select1stISC_ESt4lessIS5_ESaISC_EE10_Auto_node9_M_insertES6_IPSt18_Rb_tree_node_baseSL_E
FNL:36,234,235
FNA:36,810,_ZNKSt13_Rb_tree_nodeISt4pairIKNSt7__cxx1112basic_stringIcSt11char_traitsIcESaIcEEESt6vectorI4EdgeSaIS9_EEEE9_M_valptrEv
FNL:37,239,240
FNA:37,104,_ZNSt13_Rb_tree_nodeISt4pairIKNSt7__cxx1112basic_stringIcSt11char_traitsIcESaIcEEESt6vectorI4EdgeSaIS9_EEEE11_M_node_ptrEv
FNL:38,2582,2593
FNA:38,138,_ZNSt8_Rb_treeINSt7__cxx1112basic_stringIcSt11char_traitsIcESaIcEEESt4pairIKS5_St6vectorI4EdgeSaIS9_EEESt10_Select1stISC_ESt4lessIS5_ESaISC_EE8_M_eraseEPSt13_Rb_tree_nodeISC_E
FNL:39,2599,2609
FNA:39,273,_ZNKSt8_Rb_treeINSt7__cxx1112basic_stringIcSt11char_traitsIcESaIcEEESt4pairIKS5_St6vectorI4EdgeSaIS9_EEESt10_Select1stISC_ESt4lessIS5_ESaISC_EE14_M_lower_boundEPSt18_Rb_tree_node_baseSK_RS7_
FNL:40,2730,2754
FNA:40,27,_ZNSt8_Rb_treeINSt7__cxx1112basic_stringIcSt11char_traitsIcESaIcEEESt4pairIKS5_St6vectorI4EdgeSaIS9_EEESt10_Select1stISC_ESt4lessIS5_ESaISC_EE24_M_get_insert_unique_posERS7_
FNL:41,2832,2882
FNA:41,104,_ZNSt8_Rb_treeINSt7__cxx1112basic_stringIcSt11char_traitsIcESaIcEEESt4pairIKS5_St6vectorI4EdgeSaIS9_EEESt10_Select1stISC_ESt4lessIS5_ESaISC_EE29_M_get_insert_hint_unique_posESt23_Rb_tree_const_iteratorISC_ERS7_
FNL:42,2997,3010
FNA:42,104,_ZNSt8_Rb_treeINSt7__cxx1112basic_stringIcSt11char_traitsIcESaIcEEESt4pairIKS5_St6vectorI4EdgeSaIS9_EEESt10_Select1stISC_ESt4lessIS5_ESaISC_EE14_M_insert_nodeEPSt18_Rb_tree_node_baseSK_PSt13_Rb_tree_nodeISC_E
FNL:43,3080,3089
FNA:43,104,_ZNSt8_Rb_treeINSt7__cxx1112basic_stringIcSt11char_traitsIcESaIcEEESt4pairIKS5_St6vectorI4EdgeSaIS9_EEESt10_Select1stISC_ESt4lessIS5_ESaISC_EE22_M_emplace_hint_uniqueIJRKSt21piecewise_construct_tSt5tupleIJRS7_EESN_IJEEEEESt17_Rb_tree_iteratorISC_ESt23_Rb_tree_const_iteratorISC_EDpOT_
FNL:44,3149,3156
FNA:44,21,_ZNSt8_Rb_treeINSt7__cxx1112basic_stringIcSt11char_traitsIcESaIcEEESt4pairIKS5_St6vectorI4EdgeSaIS9_EEESt10_Select1stISC_ESt4lessIS5_ESaISC_EE4findERS7_
FNL:45,388,389
FNA:45,755,_ZNSt17_Rb_tree_iteratorISt4pairIKNSt7__cxx1112basic_stringIcSt11char_traitsIcESaIcEEESt6vectorI4EdgeSaIS9_EEEEC2EPSt18_Rb_tree_node_base
FNL:46,392,393
FNA:46,426,_ZNKSt17_Rb_tree_iteratorISt4pairIKNSt7__cxx1112basic_stringIcSt11char_traitsIcESaIcEEESt6vectorI4EdgeSaIS9_EEEEdeEv
FNL:47,400,404
FNA:47,0,_ZNSt17_Rb_tree_iteratorISt4pairIKNSt7__cxx1112basic_stringIcSt11char_traitsIcESaIcEEESt6vectorI4EdgeSaIS9_EEEEppEv
FNL:48,415,419
FNA:48,16,_ZNSt17_Rb_tree_iteratorISt4pairIKNSt7__cxx1112basic_stringIcSt11char_traitsIcESaIcEEESt6vectorI4EdgeSaIS9_EEEEmmEv
FNL:49,430,432
FNA:49,315,_ZSteqRKSt17_Rb_tree_iteratorISt4pairIKNSt7__cxx1112basic_stringIcSt11char_traitsIcESaIcEEESt6vectorI4EdgeSaIS9_EEEESF_
FNL:50,436,438
FNA:50,6,_ZStneRKSt17_Rb_tree_iteratorISt4pairIKNSt7__cxx1112basic_stringIcSt11char_traitsIcESaIcEEESt6vectorI4EdgeSaIS9_EEEESF_
FNL:51,466,467
FNA:51,104,_ZNSt23_Rb_tree_const_iteratorISt4pairIKNSt7__cxx1112basic_stringIcSt11char_traitsIcESaIcEEESt6vectorI4EdgeSaIS9_EEEEC2ERKSt17_Rb_tree_iteratorISC_E
FNL:52,689,694
FNA:52,104,_ZNSt9__rb_tree12_Node_traitsISt4pairIKNSt7__cxx1112basic_stringIcSt11char_traitsIcESaIcEEESt6vectorI4EdgeSaISA_EEEPSD_E23_S_insert_and_rebalanceEbPSt18_Rb_tree_node_baseSH_RSG_
FNF:53
FNH:52
DA:134,892
DA:135,892
DA:144,34
DA:148,34
DA:171,34
DA:172,34
DA:173,34
DA:174,34
DA:175,34
DA:204,34
DA:206,34
DA:207,34
DA:208,34
DA:209,34
DA:210,34
DA:230,634
DA:231,634
DA:234,810
DA:235,810
DA:239,104
DA:240,104
DA:388,755
DA:389,755
DA:392,426
DA:393,426
DA:400,0
DA:402,0
DA:403,0
DA:415,16
DA:417,16
DA:418,16
DA:430,315
DA:432,315
DA:436,6
DA:438,6
DA:466,104
DA:467,104
DA:689,104
DA:693,104
DA:1154,416
DA:1155,416
DA:1167,104
DA:1170,208
DA:1188,104
DA:1191,104
DA:1207,104
DA:1232,104
DA:1236,104
DA:1237,312
DA:1241,0
DA:1243,0
DA:1244,0
DA:1245,0
DA:1247,104
DA:1251,104
DA:1253,104
DA:1254,312
DA:1255,104
DA:1260,104
DA:1265,104
DA:1266,104
DA:1268,104
DA:1271,104
DA:1273,104
DA:1274,104
DA:1275,104
DA:1310,34
DA:1314,34
DA:1315,34
DA:1361,46
DA:1362,46
DA:1369,102
DA:1370,102
DA:1377,300
DA:1378,300
DA:1381,34
DA:1383,34
DA:1385,34
DA:1386,7
DA:1390,788
DA:1391,788
DA:1394,810
DA:1412,810
DA:1416,647
DA:1417,647
DA:1420,163
DA:1421,163
DA:1424,269
DA:1425,269
DA:1428,104
DA:1430,104
DA:1431,104
DA:1432,70
DA:1436,222
DA:1437,222
DA:1440,104
DA:1442,104
DA:1443,104
DA:1444,61
DA:1553,34
DA:1608,34
DA:1609,34
DA:1616,174
DA:1617,174
DA:1620,27
DA:1621,27
DA:1628,298
DA:1629,298
DA:1656,78
DA:1657,78
DA:1893,252
DA:1894,252
DA:2283,104
DA:2284,104
DA:2285,312
DA:2286,104
DA:2288,104
DA:2290,104
DA:2291,0
DA:2292,104
DA:2299,104
DA:2300,104
DA:2303,104
DA:2305,104
DA:2306,104
DA:2307,104
DA:2582,138
DA:2586,242
DA:2588,104
DA:2589,104
DA:2590,104
DA:2591,104
DA:2593,138
DA:2599,273
DA:2603,748
DA:2604,475
DA:2605,269
DA:2607,206
DA:2608,273
DA:2730,27
DA:2734,27
DA:2735,27
DA:2736,27
DA:2737,27
DA:2739,0
DA:2740,0
DA:2741,0
DA:2743,27
DA:2744,27
DA:2746,27
DA:2747,27
DA:2749,0
DA:2751,0
DA:2752,0
DA:2753,0
DA:2832,104
DA:2839,104
DA:2841,78
DA:2842,78
DA:2843,51
DA:2845,27
DA:2847,26
DA:2850,26
DA:2851,26
DA:2852,10
DA:2853,16
DA:2855,16
DA:2856,8
DA:2858,8
DA:2861,0
DA:2863,0
DA:2866,0
DA:2867,0
DA:2868,0
DA:2869,0
DA:2871,0
DA:2872,0
DA:2874,0
DA:2877,0
DA:2881,0
DA:2997,104
DA:3001,86
DA:3002,190
DA:3005,104
DA:3007,104
DA:3008,104
DA:3009,104
DA:3080,104
DA:3084,312
DA:3085,104
DA:3086,104
DA:3087,104
DA:3088,0
DA:3089,104
DA:3149,21
DA:3152,21
DA:3153,42
DA:3154,20
DA:3155,62
LF:199
LH:172
end_of_record
TN:
SF:/usr/include/c++/15.1.1/bits/stl_uninitialized.h
FNL:0,1274,1284
FNA:0,16,_ZSt19__relocate_object_aI4EdgeS0_SaIS0_EEvPT_PT0_RT1_
FNA:0,0,_ZSt19__relocate_object_aINSt7__cxx1112basic_stringIcSt11char_traitsIcESaIcEEES5_SaIS5_EEvPT_PT0_RT1_
FNL:1,1297,1314
FNA:1,120,_ZSt14__relocate_a_1IP4EdgeS1_SaIS0_EET0_T_S4_S3_RT1_
FNA:1,3,_ZSt14__relocate_a_1IPNSt7__cxx1112basic_stringIcSt11char_traitsIcESaIcEEES6_SaIS5_EET0_T_S9_S8_RT1_
FNL:2,1347,1356
FNA:2,120,_ZSt12__relocate_aIP4EdgeS1_SaIS0_EET0_T_S4_S3_RT1_
FNA:2,3,_ZSt12__relocate_aIPNSt7__cxx1112basic_stringIcSt11char_traitsIcESaIcEEES6_SaIS5_EET0_T_S9_S8_RT1_
FNF:3
FNH:3
DA:1274,16
DA:1282,16
DA:1283,16
DA:1284,16
DA:1297,123
DA:1309,123
DA:1310,139
DA:1311,32
DA:1313,123
DA:1347,123
DA:1353,369
DA:1355,123
LF:12
LH:12
end_of_record
TN:
SF:/usr/include/c++/15.1.1/bits/stl_vector.h
FNL:0,1008,1009
FNA:0,120,_ZNKSt6vectorI4EdgeSaIS0_EE5beginEv
FNA:0,9,_ZNKSt6vectorINSt7__cxx1112basic_stringIcSt11char_traitsIcESaIcEEESaIS5_EE5beginEv
FNL:1,1018,1019
FNA:1,372,_ZNSt6vectorI4EdgeSaIS0_EE3endEv
FNA:1,3,_ZNSt6vectorINSt7__cxx1112basic_stringIcSt11char_traitsIcESaIcEEESaIS5_EE3endEv
FNL:2,1028,1029
FNA:2,120,_ZNKSt6vectorI4EdgeSaIS0_EE3endEv
FNA:2,9,_ZNKSt6vectorINSt7__cxx1112basic_stringIcSt11char_traitsIcESaIcEEESaIS5_EE3endEv
FNL:3,105,107
FNA:3,104,_ZNSt12_Vector_baseI4EdgeSaIS0_EE17_Vector_impl_dataC2Ev
FNA:3,9,_ZNSt12_Vector_baseINSt7__cxx1112basic_stringIcSt11char_traitsIcESaIcEEESaIS5_EE17_Vector_impl_dataC2Ev
FNL:4,1117,1123
FNA:4,480,_ZNKSt6vectorI4EdgeSaIS0_EE4sizeEv
FNA:4,18,_ZNKSt6vectorINSt7__cxx1112basic_stringIcSt11char_traitsIcESaIcEEESaIS5_EE4sizeEv
FNL:5,1128,1129
FNA:5,240,_ZNKSt6vectorI4EdgeSaIS0_EE8max_sizeEv
FNA:5,6,_ZNKSt6vectorINSt7__cxx1112basic_stringIcSt11char_traitsIcESaIcEEESaIS5_EE8max_sizeEv
FNL:6,1223,1224
FNA:6,120,_ZNKSt6vectorI4EdgeSaIS0_EE5emptyEv
FNA:6,9,_ZNKSt6vectorINSt7__cxx1112basic_stringIcSt11char_traitsIcESaIcEEESaIS5_EE5emptyEv
FNL:7,1261,1265
FNA:7,3,_ZNSt6vectorINSt7__cxx1112basic_stringIcSt11char_traitsIcESaIcEEESaIS5_EEixEm
FNL:8,1368,1372
FNA:8,120,_ZNSt6vectorI4EdgeSaIS0_EE4backEv
FNL:9,1416,1428
FNA:9,3,_ZNSt6vectorINSt7__cxx1112basic_stringIcSt11char_traitsIcESaIcEEESaIS5_EE9push_backERKS5_
FNL:10,143,149
FNA:10,104,_ZNSt12_Vector_baseI4EdgeSaIS0_EE12_Vector_implC2Ev
FNA:10,9,_ZNSt12_Vector_baseINSt7__cxx1112basic_stringIcSt11char_traitsIcESaIcEEESaIS5_EE12_Vector_implC2Ev
FNL:11,1433,1434
FNA:11,120,_ZNSt6vectorI4EdgeSaIS0_EE9push_backEOS0_
FNL:12,1875,1877
FNA:12,120,_ZNSt6vectorI4EdgeSaIS0_EE12_Guard_allocC2EPS0_mRSt12_Vector_baseIS0_S1_E
FNA:12,3,_ZNSt6vectorINSt7__cxx1112basic_stringIcSt11char_traitsIcESaIcEEESaIS5_EE12_Guard_allocC2EPS5_mRSt12_Vector_baseIS5_S6_E
FNL:13,1880,1884
FNA:13,120,_ZNSt6vectorI4EdgeSaIS0_EE12_Guard_allocD2Ev
FNA:13,3,_ZNSt6vectorINSt7__cxx1112basic_stringIcSt11char_traitsIcESaIcEEESaIS5_EE12_Guard_allocD2Ev
FNL:14,2196,2203
FNA:14,120,_ZNKSt6vectorI4EdgeSaIS0_EE12_M_check_lenEmPKc
FNA:14,3,_ZNKSt6vectorINSt7__cxx1112basic_stringIcSt11char_traitsIcESaIcEEESaIS5_EE12_M_check_lenEmPKc
FNL:15,2216,2225
FNA:15,240,_ZNSt6vectorI4EdgeSaIS0_EE11_S_max_sizeERKS1_
FNA:15,6,_ZNSt6vectorINSt7__cxx1112basic_stringIcSt11char_traitsIcESaIcEEESaIS5_EE11_S_max_sizeERKS6_
FNL:16,307,308
FNA:16,224,_ZNSt12_Vector_baseI4EdgeSaIS0_EE19_M_get_Tp_allocatorEv
FNA:16,12,_ZNSt12_Vector_baseINSt7__cxx1112basic_stringIcSt11char_traitsIcESaIcEEESaIS5_EE19_M_get_Tp_allocatorEv
FNL:17,312,313
FNA:17,240,_ZNKSt12_Vector_baseI4EdgeSaIS0_EE19_M_get_Tp_allocatorEv
FNA:17,6,_ZNKSt12_Vector_baseINSt7__cxx1112basic_stringIcSt11char_traitsIcESaIcEEESaIS5_EE19_M_get_Tp_allocatorEv
FNL:18,321,321
FNA:18,104,_ZNSt12_Vector_baseI4EdgeSaIS0_EEC2Ev
FNA:18,9,_ZNSt12_Vector_baseINSt7__cxx1112basic_stringIcSt11char_traitsIcESaIcEEESaIS5_EEC2Ev
FNL:19,373,377
FNA:19,104,_ZNSt12_Vector_baseI4EdgeSaIS0_EED2Ev
FNA:19,9,_ZNSt12_Vector_baseINSt7__cxx1112basic_stringIcSt11char_traitsIcESaIcEEESaIS5_EED2Ev
FNL:20,384,388
FNA:20,120,_ZNSt12_Vector_baseI4EdgeSaIS0_EE11_M_allocateEm
FNA:20,3,_ZNSt12_Vector_baseINSt7__cxx1112basic_stringIcSt11char_traitsIcESaIcEEESaIS5_EE11_M_allocateEm
FNL:21,392,397
FNA:21,120,_ZNSt12_Vector_baseI4EdgeSaIS0_EE13_M_deallocateEPS0_m
FNA:21,9,_ZNSt12_Vector_baseINSt7__cxx1112basic_stringIcSt11char_traitsIcESaIcEEESaIS5_EE13_M_deallocateEPS5_m
FNL:22,534,544
FNA:22,120,_ZNSt6vectorI4EdgeSaIS0_EE11_S_relocateEPS0_S3_S3_RS1_
FNA:22,3,_ZNSt6vectorINSt7__cxx1112basic_stringIcSt11char_traitsIcESaIcEEESaIS5_EE11_S_relocateEPS5_S8_S8_RS6_
FNL:23,561,561
FNA:23,104,_ZNSt6vectorI4EdgeSaIS0_EEC2Ev
FNA:23,9,_ZNSt6vectorINSt7__cxx1112basic_stringIcSt11char_traitsIcESaIcEEESaIS5_EEC2Ev
FNL:24,800,805
FNA:24,104,_ZNSt6vectorI4EdgeSaIS0_EED2Ev
FNA:24,9,_ZNSt6vectorINSt7__cxx1112basic_stringIcSt11char_traitsIcESaIcEEESaIS5_EED2Ev
FNL:25,998,999
FNA:25,252,_ZNSt6vectorI4EdgeSaIS0_EE5beginEv
FNA:25,3,_ZNSt6vectorINSt7__cxx1112basic_stringIcSt11char_traitsIcESaIcEEESaIS5_EE5beginEv
FNF:26
FNH:26
DA:105,113
DA:106,113
DA:107,113
DA:143,113
DA:148,113
DA:149,113
DA:307,236
DA:308,236
DA:312,246
DA:313,246
DA:321,113
DA:373,113
DA:375,113
DA:376,113
DA:377,113
DA:384,123
DA:387,246
DA:392,129
DA:395,129
DA:396,123
DA:397,129
DA:534,123
DA:539,123
DA:561,113
DA:800,113
DA:802,113
DA:803,113
DA:805,113
DA:998,255
DA:999,255
DA:1008,129
DA:1009,129
DA:1018,375
DA:1019,375
DA:1028,129
DA:1029,129
DA:1117,498
DA:1119,498
DA:1120,498
DA:1121,0
DA:1122,498
DA:1128,246
DA:1129,246
DA:1223,129
DA:1224,258
DA:1261,3
DA:1263,3
DA:1264,3
DA:1368,120
DA:1370,120
DA:1371,360
DA:1416,3
DA:1418,3
DA:1421,0
DA:1423,0
DA:1427,3
DA:1428,3
DA:1433,120
DA:1434,120
DA:1875,123
DA:1876,123
DA:1877,123
DA:1880,123
DA:1882,123
DA:1883,16
DA:1884,123
DA:2196,123
DA:2198,123
DA:2199,0
DA:2201,123
DA:2202,123
DA:2216,246
DA:2221,246
DA:2223,246
DA:2224,246
LF:75
LH:71
end_of_record
TN:
SF:/usr/include/c++/15.1.1/bits/unique_ptr.h
FNL:0,168,168
FNA:0,6,_ZNSt15__uniq_ptr_implINSt7__cxx1112basic_stringIcSt11char_traitsIcESaIcEEESt14default_deleteIS5_EEC2Ev
FNL:1,191,191
FNA:1,12,_ZNSt15__uniq_ptr_implINSt7__cxx1112basic_stringIcSt11char_traitsIcESaIcEEESt14default_deleteIS5_EE6_M_ptrEv
FNA:1,0,_ZNSt15__uniq_ptr_implINSt7__cxx1118basic_stringstreamIcSt11char_traitsIcESaIcEEESt14default_deleteIS5_EE6_M_ptrEv
FNL:2,193,193
FNA:2,0,_ZNKSt15__uniq_ptr_implINSt7__cxx1112basic_stringIcSt11char_traitsIcESaIcEEESt14default_deleteIS5_EE6_M_ptrEv
FNA:2,0,_ZNKSt15__uniq_ptr_implINSt7__cxx1118basic_stringstreamIcSt11char_traitsIcESaIcEEESt14default_deleteIS5_EE6_M_ptrEv
FNL:3,195,195
FNA:3,0,_ZNSt15__uniq_ptr_implINSt7__cxx1112basic_stringIcSt11char_traitsIcESaIcEEESt14default_deleteIS5_EE10_M_deleterEv
FNA:3,0,_ZNSt15__uniq_ptr_implINSt7__cxx1118basic_stringstreamIcSt11char_traitsIcESaIcEEESt14default_deleteIS5_EE10_M_deleterEv
FNL:4,298,300
FNA:4,6,_ZNSt10unique_ptrINSt7__cxx1112basic_stringIcSt11char_traitsIcESaIcEEESt14default_deleteIS5_EEC2IS7_vEEv
FNL:5,393,401
FNA:5,12,_ZNSt10unique_ptrINSt7__cxx1112basic_stringIcSt11char_traitsIcESaIcEEESt14default_deleteIS5_EED2Ev
FNA:5,0,_ZNSt10unique_ptrINSt7__cxx1118basic_stringstreamIcSt11char_traitsIcESaIcEEESt14default_deleteIS5_EED2Ev
FNL:6,446,458
FNA:6,0,_ZNKSt10unique_ptrINSt7__cxx1118basic_stringstreamIcSt11char_traitsIcESaIcEEESt14default_deleteIS5_EEdeEv
FNL:7,463,467
FNA:7,0,_ZNKSt10unique_ptrINSt7__cxx1112basic_stringIcSt11char_traitsIcESaIcEEESt14default_deleteIS5_EEptEv
FNL:8,472,473
FNA:8,0,_ZNKSt10unique_ptrINSt7__cxx1112basic_stringIcSt11char_traitsIcESaIcEEESt14default_deleteIS5_EE3getEv
FNA:8,0,_ZNKSt10unique_ptrINSt7__cxx1118basic_stringstreamIcSt11char_traitsIcESaIcEEESt14default_deleteIS5_EE3getEv
FNL:9,478,479
FNA:9,0,_ZNSt10unique_ptrINSt7__cxx1112basic_stringIcSt11char_traitsIcESaIcEEESt14default_deleteIS5_EE11get_deleterEv
FNA:9,0,_ZNSt10unique_ptrINSt7__cxx1118basic_stringstreamIcSt11char_traitsIcESaIcEEESt14default_deleteIS5_EE11get_deleterEv
FNL:10,489,490
FNA:10,0,_ZNKSt10unique_ptrINSt7__cxx1112basic_stringIcSt11char_traitsIcESaIcEEESt14default_deleteIS5_EEcvbEv
FNL:11,87,94
FNA:11,0,_ZNKSt14default_deleteINSt7__cxx1112basic_stringIcSt11char_traitsIcESaIcEEEEclEPS5_
FNA:11,0,_ZNKSt14default_deleteINSt7__cxx1118basic_stringstreamIcSt11char_traitsIcESaIcEEEEclEPS5_
FNL:12,878,879
FNA:12,0,_ZStneINSt7__cxx1112basic_stringIcSt11char_traitsIcESaIcEEESt14default_deleteIS5_EEbRKSt10unique_ptrIT_T0_EDn
FNF:13
FNH:4
DA:87,0
DA:93,0
DA:94,0
DA:168,6
DA:191,12
DA:193,0
DA:195,0
DA:298,6
DA:299,6
DA:300,6
DA:393,12
DA:397,12
DA:398,12
DA:399,0
DA:400,12
DA:401,12
DA:446,0
DA:456,0
DA:457,0
DA:463,0
DA:466,0
DA:472,0
DA:473,0
DA:478,0
DA:479,0
DA:489,0
DA:490,0
DA:878,0
DA:879,0
LF:29
LH:10
end_of_record
TN:
SF:/usr/include/c++/15.1.1/bits/vector.tcc
FNL:0,111,127
FNA:0,120,_ZNSt6vectorI4EdgeSaIS0_EE12emplace_backIJS0_EEERS0_DpOT_
FNL:1,557,647
FNA:1,120,_ZNSt6vectorI4EdgeSaIS0_EE17_M_realloc_appendIJS0_EEEvDpOT_
FNA:1,3,_ZNSt6vectorINSt7__cxx1112basic_stringIcSt11char_traitsIcESaIcEEESaIS5_EE17_M_realloc_appendIJRKS5_EEEvDpOT_
FNF:2
FNH:2
DA:111,120
DA:114,120
DA:117,0
DA:119,0
DA:123,120
DA:125,120
DA:557,123
DA:566,123
DA:567,123
DA:568,0
DA:569,123
DA:570,123
DA:571,123
DA:572,123
DA:573,123
DA:576,123
DA:586,123
DA:587,123
DA:599,123
DA:600,123
DA:601,123
DA:638,123
DA:639,123
DA:640,123
DA:644,123
DA:645,123
DA:646,123
DA:647,123
LF:28
LH:25
end_of_record
TN:
SF:/usr/include/c++/15.1.1/ext/aligned_buffer.h
FNL:0,70,71
FNA:0,634,_ZN9__gnu_cxx16__aligned_membufISt4pairIKNSt7__cxx1112basic_stringIcSt11char_traitsIcESaIcEEESt6vectorI4EdgeSaISA_EEEE7_M_addrEv
FNL:1,74,75
FNA:1,810,_ZNK9__gnu_cxx16__aligned_membufISt4pairIKNSt7__cxx1112basic_stringIcSt11char_traitsIcESaIcEEESt6vectorI4EdgeSaISA_EEEE7_M_addrEv
FNL:2,78,79
FNA:2,634,_ZN9__gnu_cxx16__aligned_membufISt4pairIKNSt7__cxx1112basic_stringIcSt11char_traitsIcESaIcEEESt6vectorI4EdgeSaISA_EEEE6_M_ptrEv
FNL:3,82,83
FNA:3,810,_ZNK9__gnu_cxx16__aligned_membufISt4pairIKNSt7__cxx1112basic_stringIcSt11char_traitsIcESaIcEEESt6vectorI4EdgeSaISA_EEEE6_M_ptrEv
FNF:4
FNH:4
DA:70,634
DA:71,634
DA:74,810
DA:75,810
DA:78,634
DA:79,634
DA:82,810
DA:83,810
LF:8
LH:8
end_of_record
TN:
SF:/usr/include/c++/15.1.1/ext/alloc_traits.h
FNF:0
FNH:0
DA:100,233
LF:1
LH:1
end_of_record
TN:
SF:/usr/include/c++/15.1.1/new
FNL:0,206,208
FNA:0,347,_ZnwmPv
FNL:1,217,219
FNA:1,0,_ZdlPvS_
FNF:2
FNH:1
DA:206,347
DA:208,347
DA:217,0
DA:219,0
LF:4
LH:2
end_of_record
TN:
SF:/usr/include/c++/15.1.1/tuple
FNL:0,137,137
FNA:0,0,_ZNSt10_Head_baseILm1ESt14default_deleteINSt7__cxx1112basic_stringIcSt11char_traitsIcESaIcEEEELb1EE7_M_headERS8_
FNA:0,0,_ZNSt10_Head_baseILm1ESt14default_deleteINSt7__cxx1118basic_stringstreamIcSt11char_traitsIcESaIcEEEELb1EE7_M_headERS8_
FNL:1,1473,1475
FNA:1,104,_ZNSt5tupleIJRKNSt7__cxx1112basic_stringIcSt11char_traitsIcESaIcEEEEEC2ILb1ELb1EEES7_
FNL:2,1504,1504
FNA:2,104,_ZNSt5tupleIJRKNSt7__cxx1112basic_stringIcSt11char_traitsIcESaIcEEEEEC2EOS8_
FNL:3,202,203
FNA:3,6,_ZNSt10_Head_baseILm0EPNSt7__cxx1112basic_stringIcSt11char_traitsIcESaIcEEELb0EEC2Ev
FNL:4,205,206
FNA:4,104,_ZNSt10_Head_baseILm0ERKNSt7__cxx1112basic_stringIcSt11char_traitsIcESaIcEEELb0EEC2ES7_
FNL:5,2090,2092
FNA:5,6,_ZNSt5tupleIJPNSt7__cxx1112basic_stringIcSt11char_traitsIcESaIcEEESt14default_deleteIS5_EEEC2ILb1ELb1EEEv
FNL:6,2428,2429
FNA:6,12,_ZSt12__get_helperILm0EPNSt7__cxx1112basic_stringIcSt11char_traitsIcESaIcEEEJSt14default_deleteIS5_EEERT0_RSt11_Tuple_implIXT_EJS9_DpT1_EE
FNA:6,0,_ZSt12__get_helperILm0EPNSt7__cxx1118basic_stringstreamIcSt11char_traitsIcESaIcEEEJSt14default_deleteIS5_EEERT0_RSt11_Tuple_implIXT_EJS9_DpT1_EE
FNA:6,104,_ZSt12__get_helperILm0ERKNSt7__cxx1112basic_stringIcSt11char_traitsIcESaIcEEEJEERT0_RSt11_Tuple_implIXT_EJS8_DpT1_EE
FNA:6,0,_ZSt12__get_helperILm1ESt14default_deleteINSt7__cxx1112basic_stringIcSt11char_traitsIcESaIcEEEEJEERT0_RSt11_Tuple_implIXT_EJS8_DpT1_EE
FNA:6,0,_ZSt12__get_helperILm1ESt14default_deleteINSt7__cxx1118basic_stringstreamIcSt11char_traitsIcESaIcEEEEJEERT0_RSt11_Tuple_implIXT_EJS8_DpT1_EE
FNL:7,2433,2434
FNA:7,0,_ZSt12__get_helperILm0EPNSt7__cxx1112basic_stringIcSt11char_traitsIcESaIcEEEJSt14default_deleteIS5_EEERKT0_RKSt11_Tuple_implIXT_EJS9_DpT1_EE
FNA:7,0,_ZSt12__get_helperILm0EPNSt7__cxx1118basic_stringstreamIcSt11char_traitsIcESaIcEEEJSt14default_deleteIS5_EEERKT0_RKSt11_Tuple_implIXT_EJS9_DpT1_EE
FNL:8,2444,2445
FNA:8,12,_ZSt3getILm0EJPNSt7__cxx1112basic_stringIcSt11char_traitsIcESaIcEEESt14default_deleteIS5_EEERNSt13tuple_elementIXT_ESt5tupleIJDpT0_EEE4typeERSD_
FNA:8,0,_ZSt3getILm0EJPNSt7__cxx1118basic_stringstreamIcSt11char_traitsIcESaIcEEESt14default_deleteIS5_EEERNSt13tuple_elementIXT_ESt5tupleIJDpT0_EEE4typeERSD_
FNA:8,104,_ZSt3getILm0EJRKNSt7__cxx1112basic_stringIcSt11char_traitsIcESaIcEEEEERNSt13tuple_elementIXT_ESt5tupleIJDpT0_EEE4typeERSC_
FNA:8,0,_ZSt3getILm1EJPNSt7__cxx1112basic_stringIcSt11char_traitsIcESaIcEEESt14default_deleteIS5_EEERNSt13tuple_elementIXT_ESt5tupleIJDpT0_EEE4typeERSD_
FNA:8,0,_ZSt3getILm1EJPNSt7__cxx1118basic_stringstreamIcSt11char_traitsIcESaIcEEESt14default_deleteIS5_EEERNSt13tuple_elementIXT_ESt5tupleIJDpT0_EEE4typeERSD_
FNL:9,2450,2451
FNA:9,0,_ZSt3getILm0EJPNSt7__cxx1112basic_stringIcSt11char_traitsIcESaIcEEESt14default_deleteIS5_EEERKNSt13tuple_elementIXT_ESt5tupleIJDpT0_EEE4typeERKSD_
FNA:9,0,_ZSt3getILm0EJPNSt7__cxx1118basic_stringstreamIcSt11char_traitsIcESaIcEEESt14default_deleteIS5_EEERKNSt13tuple_elementIXT_ESt5tupleIJDpT0_EEE4typeERKSD_
FNL:10,246,246
FNA:10,12,_ZNSt10_Head_baseILm0EPNSt7__cxx1112basic_stringIcSt11char_traitsIcESaIcEEELb0EE7_M_headERS7_
FNA:10,0,_ZNSt10_Head_baseILm0EPNSt7__cxx1118basic_stringstreamIcSt11char_traitsIcESaIcEEELb0EE7_M_headERS7_
FNA:10,104,_ZNSt10_Head_baseILm0ERKNSt7__cxx1112basic_stringIcSt11char_traitsIcESaIcEEELb0EE7_M_headERS8_
FNL:11,249,249
FNA:11,0,_ZNSt10_Head_baseILm0EPNSt7__cxx1112basic_stringIcSt11char_traitsIcESaIcEEELb0EE7_M_headERKS7_
FNA:11,0,_ZNSt10_Head_baseILm0EPNSt7__cxx1118basic_stringstreamIcSt11char_traitsIcESaIcEEELb0EE7_M_headERKS7_
FNL:12,2871,2877
FNA:12,104,_ZNSt4pairIKNSt7__cxx1112basic_stringIcSt11char_traitsIcESaIcEEESt6vectorI4EdgeSaIS8_EEEC2IJRS6_EJEEESt21piecewise_construct_tSt5tupleIJDpT_EESF_IJDpT0_EE
FNL:13,2883,2888
FNA:13,104,_ZNSt4pairIKNSt7__cxx1112basic_stringIcSt11char_traitsIcESaIcEEESt6vectorI4EdgeSaIS8_EEEC2IJRS6_EJLm0EEJEJEEERSt5tupleIJDpT_EERSE_IJDpT1_EESt12_Index_tupleIJXspT0_EEESN_IJXspT2_EEE
FNL:14,291,291
FNA:14,12,_ZNSt11_Tuple_implILm0EJPNSt7__cxx1112basic_stringIcSt11char_traitsIcESaIcEEESt14default_deleteIS5_EEE7_M_headERS9_
FNA:14,0,_ZNSt11_Tuple_implILm0EJPNSt7__cxx1118basic_stringstreamIcSt11char_traitsIcESaIcEEESt14default_deleteIS5_EEE7_M_headERS9_
FNL:15,294,294
FNA:15,0,_ZNSt11_Tuple_implILm0EJPNSt7__cxx1112basic_stringIcSt11char_traitsIcESaIcEEESt14default_deleteIS5_EEE7_M_headERKS9_
FNA:15,0,_ZNSt11_Tuple_implILm0EJPNSt7__cxx1118basic_stringstreamIcSt11char_traitsIcESaIcEEESt14default_deleteIS5_EEE7_M_headERKS9_
FNL:16,302,303
FNA:16,6,_ZNSt11_Tuple_implILm0EJPNSt7__cxx1112basic_stringIcSt11char_traitsIcESaIcEEESt14default_deleteIS5_EEEC2Ev
FNL:17,554,554
FNA:17,104,_ZNSt11_Tuple_implILm0EJRKNSt7__cxx1112basic_stringIcSt11char_traitsIcESaIcEEEEE7_M_headERS8_
FNA:17,0,_ZNSt11_Tuple_implILm1EJSt14default_deleteINSt7__cxx1112basic_stringIcSt11char_traitsIcESaIcEEEEEE7_M_headERS8_
FNA:17,0,_ZNSt11_Tuple_implILm1EJSt14default_deleteINSt7__cxx1118basic_stringstreamIcSt11char_traitsIcESaIcEEEEEE7_M_headERS8_
FNL:18,560,561
FNA:18,6,_ZNSt11_Tuple_implILm1EJSt14default_deleteINSt7__cxx1112basic_stringIcSt11char_traitsIcESaIcEEEEEEC2Ev
FNL:19,564,566
FNA:19,104,_ZNSt11_Tuple_implILm0EJRKNSt7__cxx1112basic_stringIcSt11char_traitsIcESaIcEEEEEC2ES7_
FNL:20,584,587
FNA:20,104,_ZNSt11_Tuple_implILm0EJRKNSt7__cxx1112basic_stringIcSt11char_traitsIcESaIcEEEEEC2EOS8_
FNL:21,93,94
FNA:21,6,_ZNSt10_Head_baseILm1ESt14default_deleteINSt7__cxx1112basic_stringIcSt11char_traitsIcESaIcEEEELb1EEC2Ev
FNF:22
FNH:17
DA:93,6
DA:94,6
DA:137,0
DA:202,6
DA:203,6
DA:205,104
DA:206,104
DA:246,116
DA:249,0
DA:291,12
DA:294,0
DA:302,6
DA:303,6
DA:554,104
DA:560,6
DA:561,6
DA:564,104
DA:565,104
DA:566,104
DA:584,104
DA:586,104
DA:587,104
DA:1473,104
DA:1475,104
DA:1504,104
DA:2090,6
DA:2092,6
DA:2428,116
DA:2429,116
DA:2433,0
DA:2434,0
DA:2444,116
DA:2445,116
DA:2450,0
DA:2451,0
DA:2871,104
DA:2876,104
DA:2877,104
DA:2883,104
DA:2886,208
DA:2887,104
DA:2888,104
LF:42
LH:35
end_of_record
TN:
SF:/usr/include/c++/15.1.1/x86_64-pc-linux-gnu/bits/c++config.h
FNF:0
FNH:0
DA:589,1125
LF:1
LH:1
end_of_record
TN:
SF:/usr/include/gtest/gtest-assertion-result.h
FNL:0,162,168
FNA:0,6,_ZN7testing15AssertionResultC2IbEERKT_PNSt9enable_ifIXntsrSt14is_convertibleIS2_S0_E5valueEvE4typeE
FNL:1,181,181
FNA:1,12,_ZNK7testing15AssertionResultcvbEv
FNL:2,190,192
FNA:2,0,_ZNK7testing15AssertionResult7messageEv
FNL:3,194,194
FNA:3,0,_ZNK7testing15AssertionResult15failure_messageEv
FNF:4
FNH:2
DA:162,6
DA:168,6
DA:181,12
DA:190,0
DA:191,0
DA:194,0
LF:6
LH:3
end_of_record
TN:
SF:/usr/include/gtest/gtest-message.h
FNL:0,132,150
FNA:0,0,_ZN7testing7MessagelsIA24_cEERS0_RKT_
FNA:0,0,_ZN7testing7MessagelsIA25_cEERS0_RKT_
FNA:0,0,_ZN7testing7MessagelsIA28_cEERS0_RKT_
FNA:0,0,_ZN7testing7MessagelsIA31_cEERS0_RKT_
FNA:0,0,_ZN7testing7MessagelsIA40_cEERS0_RKT_
FNA:0,0,_ZN7testing7MessagelsIA41_cEERS0_RKT_
FNA:0,0,_ZN7testing7MessagelsIA43_cEERS0_RKT_
FNA:0,0,_ZN7testing7MessagelsIA49_cEERS0_RKT_
FNA:0,0,_ZN7testing7MessagelsIA52_cEERS0_RKT_
FNF:1
FNH:0
DA:132,0
DA:148,0
DA:149,0
LF:3
LH:0
end_of_record
TN:
SF:/usr/include/gtest/gtest-printers.h
FNL:0,1064,1066
FNA:0,0,_ZN7testing8internal21UniversalTersePrinterINSt7__cxx1112basic_stringIcSt11char_traitsIcESaIcEEEE5PrintERKS7_PSo
FNA:0,0,_ZN7testing8internal21UniversalTersePrinterIiE5PrintERKiPSo
FNA:0,0,_ZN7testing8internal21UniversalTersePrinterImE5PrintERKmPSo
FNL:1,1092,1098
FNA:1,0,_ZN7testing8internal21UniversalTersePrinterIPKcE5PrintES3_PSo
FNL:2,1183,1188
FNA:2,0,_ZN7testing8internal14UniversalPrintINSt7__cxx1112basic_stringIcSt11char_traitsIcESaIcEEEEEvRKT_PSo
FNA:2,0,_ZN7testing8internal14UniversalPrintIiEEvRKT_PSo
FNA:2,0,_ZN7testing8internal14UniversalPrintImEEvRKT_PSo
FNL:3,1223,1227
FNA:3,0,_ZN7testing13PrintToStringINSt7__cxx1112basic_stringIcSt11char_traitsIcESaIcEEEEES6_RKT_
FNA:3,0,_ZN7testing13PrintToStringIPKcEENSt7__cxx1112basic_stringIcSt11char_traitsIcESaIcEEERKT_
FNA:3,0,_ZN7testing13PrintToStringIiEENSt7__cxx1112basic_stringIcSt11char_traitsIcESaIcEEERKT_
FNA:3,0,_ZN7testing13PrintToStringImEENSt7__cxx1112basic_stringIcSt11char_traitsIcESaIcEEERKT_
FNL:4,248,253
FNA:4,0,_ZN7testing8internal52internal_stream_operator_without_lexical_name_lookup13StreamPrinter10PrintValueIivEEDTcvvlsdefp0_fp_ERKT_PSo
FNA:4,0,_ZN7testing8internal52internal_stream_operator_without_lexical_name_lookup13StreamPrinter10PrintValueImvEEDTcvvlsdefp0_fp_ERKT_PSo
FNL:5,352,363
FNA:5,0,_ZN7testing8internal17PrintWithFallbackIiEEvRKT_PSo
FNA:5,0,_ZN7testing8internal17PrintWithFallbackImEEvRKT_PSo
FNL:6,383,385
FNA:6,0,_ZN7testing8internal19FormatForComparisonINSt7__cxx1112basic_stringIcSt11char_traitsIcESaIcEEEA2_cE6FormatERKS7_
FNA:6,0,_ZN7testing8internal19FormatForComparisonINSt7__cxx1112basic_stringIcSt11char_traitsIcESaIcEEEA6_cE6FormatERKS7_
FNA:6,0,_ZN7testing8internal19FormatForComparisonINSt7__cxx1112basic_stringIcSt11char_traitsIcESaIcEEEA7_cE6FormatERKS7_
FNA:6,0,_ZN7testing8internal19FormatForComparisonIimE6FormatB5cxx11ERKi
FNA:6,0,_ZN7testing8internal19FormatForComparisonImiE6FormatB5cxx11ERKm
FNL:7,392,394
FNA:7,0,_ZN7testing8internal19FormatForComparisonIA2_cNSt7__cxx1112basic_stringIcSt11char_traitsIcESaIcEEEE6FormatEPKc
FNA:7,0,_ZN7testing8internal19FormatForComparisonIA6_cNSt7__cxx1112basic_stringIcSt11char_traitsIcESaIcEEEE6FormatEPKc
FNA:7,0,_ZN7testing8internal19FormatForComparisonIA7_cNSt7__cxx1112basic_stringIcSt11char_traitsIcESaIcEEEE6FormatEPKc
FNL:8,437,437
FNA:8,0,_ZN7testing8internal19FormatForComparisonIPKcNSt7__cxx1112basic_stringIcSt11char_traitsIcESaIcEEEE6FormatES3_
FNL:9,463,466
FNA:9,0,_ZN7testing8internal33FormatForComparisonFailureMessageIA2_cNSt7__cxx1112basic_stringIcSt11char_traitsIcESaIcEEEEES8_RKT_RKT0_
FNA:9,0,_ZN7testing8internal33FormatForComparisonFailureMessageIA6_cNSt7__cxx1112basic_stringIcSt11char_traitsIcESaIcEEEEES8_RKT_RKT0_
FNA:9,0,_ZN7testing8internal33FormatForComparisonFailureMessageIA7_cNSt7__cxx1112basic_stringIcSt11char_traitsIcESaIcEEEEES8_RKT_RKT0_
FNA:9,0,_ZN7testing8internal33FormatForComparisonFailureMessageINSt7__cxx1112basic_stringIcSt11char_traitsIcESaIcEEEA2_cEES7_RKT_RKT0_
FNA:9,0,_ZN7testing8internal33FormatForComparisonFailureMessageINSt7__cxx1112basic_stringIcSt11char_traitsIcESaIcEEEA6_cEES7_RKT_RKT0_
FNA:9,0,_ZN7testing8internal33FormatForComparisonFailureMessageINSt7__cxx1112basic_stringIcSt11char_traitsIcESaIcEEEA7_cEES7_RKT_RKT0_
FNA:9,0,_ZN7testing8internal33FormatForComparisonFailureMessageIimEENSt7__cxx1112basic_stringIcSt11char_traitsIcESaIcEEERKT_RKT0_
FNA:9,0,_ZN7testing8internal33FormatForComparisonFailureMessageImiEENSt7__cxx1112basic_stringIcSt11char_traitsIcESaIcEEERKT_RKT0_
FNL:10,490,492
FNA:10,0,_ZN7testing8internal7PrintToIiEEvRKT_PSo
FNA:10,0,_ZN7testing8internal7PrintToImEEvRKT_PSo
FNL:11,700,702
FNA:11,0,_ZN7testing8internal7PrintToERKNSt7__cxx1112basic_stringIcSt11char_traitsIcESaIcEEEPSo
FNL:12,874,884
FNA:12,0,_ZN7testing8internal16UniversalPrinterINSt7__cxx1112basic_stringIcSt11char_traitsIcESaIcEEEE5PrintERKS7_PSo
FNA:12,0,_ZN7testing8internal16UniversalPrinterIiE5PrintERKiPSo
FNA:12,0,_ZN7testing8internal16UniversalPrinterImE5PrintERKmPSo
FNF:13
FNH:0
DA:248,0
DA:252,0
DA:253,0
DA:352,0
DA:362,0
DA:363,0
DA:383,0
DA:384,0
DA:392,0
DA:393,0
DA:437,0
DA:463,0
DA:465,0
DA:490,0
DA:491,0
DA:492,0
DA:700,0
DA:701,0
DA:702,0
DA:874,0
DA:883,0
DA:884,0
DA:1064,0
DA:1065,0
DA:1066,0
DA:1092,0
DA:1093,0
DA:1094,0
DA:1096,0
DA:1098,0
DA:1183,0
DA:1187,0
DA:1188,0
DA:1223,0
DA:1224,0
DA:1225,0
DA:1226,0
DA:1227,0
LF:38
LH:0
end_of_record
TN:
SF:/usr/include/gtest/gtest.h
FNL:0,1374,1380
FNA:0,0,_ZN7testing8internal18CmpHelperEQFailureINSt7__cxx1112basic_stringIcSt11char_traitsIcESaIcEEEA2_cEENS_15AssertionResultEPKcSB_RKT_RKT0_
FNA:0,0,_ZN7testing8internal18CmpHelperEQFailureINSt7__cxx1112basic_stringIcSt11char_traitsIcESaIcEEEA6_cEENS_15AssertionResultEPKcSB_RKT_RKT0_
FNA:0,0,_ZN7testing8internal18CmpHelperEQFailureINSt7__cxx1112basic_stringIcSt11char_traitsIcESaIcEEEA7_cEENS_15AssertionResultEPKcSB_RKT_RKT0_
FNA:0,0,_ZN7testing8internal18CmpHelperEQFailureImiEENS_15AssertionResultEPKcS4_RKT_RKT0_
FNL:1,1391,1399
FNA:1,1,_ZN7testing8internal11CmpHelperEQINSt7__cxx1112basic_stringIcSt11char_traitsIcESaIcEEEA2_cEENS_15AssertionResultEPKcSB_RKT_RKT0_
FNA:1,1,_ZN7testing8internal11CmpHelperEQINSt7__cxx1112basic_stringIcSt11char_traitsIcESaIcEEEA6_cEENS_15AssertionResultEPKcSB_RKT_RKT0_
FNA:1,1,_ZN7testing8internal11CmpHelperEQINSt7__cxx1112basic_stringIcSt11char_traitsIcESaIcEEEA7_cEENS_15AssertionResultEPKcSB_RKT_RKT0_
FNA:1,3,_ZN7testing8internal11CmpHelperEQImiEENS_15AssertionResultEPKcS4_RKT_RKT0_
FNL:2,1410,1414
FNA:2,1,_ZN7testing8internal8EqHelper7CompareINSt7__cxx1112basic_stringIcSt11char_traitsIcESaIcEEEA2_cLPv0EEENS_15AssertionResultEPKcSD_RKT_RKT0_
FNA:2,1,_ZN7testing8internal8EqHelper7CompareINSt7__cxx1112basic_stringIcSt11char_traitsIcESaIcEEEA6_cLPv0EEENS_15AssertionResultEPKcSD_RKT_RKT0_
FNA:2,1,_ZN7testing8internal8EqHelper7CompareINSt7__cxx1112basic_stringIcSt11char_traitsIcESaIcEEEA7_cLPv0EEENS_15AssertionResultEPKcSD_RKT_RKT0_
FNA:2,3,_ZN7testing8internal8EqHelper7CompareImiLPv0EEENS_15AssertionResultEPKcS6_RKT_RKT0_
FNL:3,2334,2334
FNA:3,1,_Z13RUN_ALL_TESTSv
FNL:4,255,255
FNA:4,0,_ZN7testing4Test14SetUpTestSuiteEv
FNL:5,263,263
FNA:5,0,_ZN7testing4Test17TearDownTestSuiteEv
FNL:6,268,268
FNA:6,0,_ZN7testing4Test16TearDownTestCaseEv
FNL:7,269,269
FNA:7,0,_ZN7testing4Test13SetUpTestCaseEv
FNL:8,356,356
FNA:8,0,_ZN7testing4Test5SetupEv
FNF:9
FNH:3
DA:255,0
DA:263,0
DA:268,0
DA:269,0
DA:356,0
DA:1374,0
DA:1378,0
DA:1379,0
DA:1391,6
DA:1394,6
DA:1395,6
DA:1398,0
DA:1410,6
DA:1413,6
DA:2334,1
LF:15
LH:6
end_of_record
TN:
SF:/usr/include/gtest/internal/gtest-internal.h
FNL:0,410,416
FNA:0,7,_ZN7testing8internal9GetTypeIdI15BridgeWordsTestEEPKvv
FNL:1,429,429
FNA:1,0,_ZN7testing8internal15TestFactoryBaseD0Ev
FNA:1,7,_ZN7testing8internal15TestFactoryBaseD2Ev
FNL:2,436,436
FNA:2,7,_ZN7testing8internal15TestFactoryBaseC2Ev
FNL:3,448,448
FNA:3,1,_ZN7testing8internal15TestFactoryImplI31BridgeWordsTest_EmptyGraph_TestE10CreateTestEv
FNA:3,1,_ZN7testing8internal15TestFactoryImplI35BridgeWordsTest_WordNotInGraph_TestE10CreateTestEv
FNA:3,1,_ZN7testing8internal15TestFactoryImplI37BridgeWordsTest_EdgeWeightImpact_TestE10CreateTestEv
FNA:3,1,_ZN7testing8internal15TestFactoryImplI39BridgeWordsTest_CyclicGraphBridges_TestE10CreateTestEv
FNA:3,1,_ZN7testing8internal15TestFactoryImplI41BridgeWordsTest_SameWordNoDirectLoop_TestE10CreateTestEv
FNA:3,1,_ZN7testing8internal15TestFactoryImplI46BridgeWordsTest_SimpleGraphExistingBridge_TestE10CreateTestEv
FNA:3,1,_ZN7testing8internal15TestFactoryImplI49BridgeWordsTest_SimpleGraphNonExistingBridge_TestE10CreateTestEv
FNL:4,469,470
FNA:4,7,_ZN7testing8internal12CodeLocationC2ENSt7__cxx1112basic_stringIcSt11char_traitsIcESaIcEEEi
FNL:5,482,485
FNA:5,28,_ZN7testing8internal19GetNotDefaultOrNullEPFvvES2_
FNL:6,497,516
FNA:6,7,_ZN7testing8internal16SuiteApiResolverI15BridgeWordsTestE19GetSetUpCaseOrSuiteEPKci
FNL:7,518,537
FNA:7,7,_ZN7testing8internal16SuiteApiResolverI15BridgeWordsTestE22GetTearDownCaseOrSuiteEPKci
FNF:8
FNH:8
DA:410,7
DA:415,7
DA:429,7
DA:436,7
DA:448,14
DA:469,7
DA:470,14
DA:482,28
DA:484,28
DA:497,7
DA:501,7
DA:503,7
DA:505,7
DA:508,0
DA:510,7
DA:518,7
DA:522,7
DA:524,7
DA:526,7
DA:529,0
DA:531,7
LF:21
LH:19
end_of_record
TN:
SF:/usr/include/gtest/internal/gtest-port.h
FNL:0,1050,1050
FNA:0,0,_ZN7testing8internal8GTestLog9GetStreamEv
FNF:1
FNH:0
DA:1050,0
LF:1
LH:0
end_of_record
